target datalayout = "e-m:e-p270:32:32-p271:32:32-p272:64:64-i64:64-i128:128-f80:128-n8:16:32:64-S128"
target triple = "x86_64-pc-linux-gnu"

%struct.SynthFilterContext = type { ptr, ptr, ptr, ptr }

; Function Attrs: nounwind uwtable
define internal void @sub_qmf64_fixed_c(ptr noundef %0, ptr noundef %1, ptr noundef %2, ptr noundef %3, ptr noundef %4, ptr noundef %5, ptr noundef %6, ptr noundef %7, ptr noundef %8, i64 noundef %9) #1 {
  %11 = alloca ptr, align 8
  %12 = alloca ptr, align 8
  %13 = alloca ptr, align 8
  %14 = alloca ptr, align 8
  %15 = alloca ptr, align 8
  %16 = alloca ptr, align 8
  %17 = alloca ptr, align 8
  %18 = alloca ptr, align 8
  %19 = alloca ptr, align 8
  %20 = alloca i64, align 8
  %21 = alloca [64 x i32], align 16
  %22 = alloca ptr, align 8
  %23 = alloca i32, align 4
  %24 = alloca i32, align 4
  store ptr %0, ptr %11, align 8, !tbaa !47
  store ptr %1, ptr %12, align 8, !tbaa !64
  store ptr %2, ptr %13, align 8, !tbaa !28
  store ptr %3, ptr %14, align 8, !tbaa !25
  store ptr %4, ptr %15, align 8, !tbaa !25
  store ptr %5, ptr %16, align 8, !tbaa !28
  store ptr %6, ptr %17, align 8, !tbaa !28
  store ptr %7, ptr %18, align 8, !tbaa !28
  store ptr %8, ptr %19, align 8, !tbaa !28
  store i64 %9, ptr %20, align 8, !tbaa !32
  call void @llvm.lifetime.start.p0(i64 256, ptr %21) #7
  call void @llvm.lifetime.start.p0(i64 8, ptr %22) #7
  %25 = getelementptr inbounds [64 x i32], ptr %21, i64 0, i64 0
  store ptr %25, ptr %22, align 8, !tbaa !28
  call void @llvm.lifetime.start.p0(i64 4, ptr %23) #7
  call void @llvm.lifetime.start.p0(i64 4, ptr %24) #7
  %26 = load ptr, ptr %15, align 8, !tbaa !25
  %27 = icmp ne ptr %26, null
  br i1 %27, label %31, label %28

28:                                               ; preds = %10
  %29 = load ptr, ptr %22, align 8, !tbaa !28
  %30 = getelementptr inbounds i32, ptr %29, i64 32
  call void @llvm.memset.p0.i64(ptr align 4 %30, i8 0, i64 128, i1 false)
  br label %31

31:                                               ; preds = %28, %10
  store i32 0, ptr %24, align 4, !tbaa !34
  br label %32

32:                                               ; preds = %128, %31
  %33 = load i32, ptr %24, align 4, !tbaa !34
  %34 = sext i32 %33 to i64
  %35 = load i64, ptr %20, align 8, !tbaa !32
  %36 = icmp slt i64 %34, %35
  br i1 %36, label %37, label %131

37:                                               ; preds = %32
  %38 = load ptr, ptr %15, align 8, !tbaa !25
  %39 = icmp ne ptr %38, null
  br i1 %39, label %40, label %93

40:                                               ; preds = %37
  store i32 0, ptr %23, align 4, !tbaa !34
  br label %41

41:                                               ; preds = %68, %40
  %42 = load i32, ptr %23, align 4, !tbaa !34
  %43 = icmp slt i32 %42, 32
  br i1 %43, label %44, label %71

44:                                               ; preds = %41
  %45 = load ptr, ptr %14, align 8, !tbaa !25
  %46 = load i32, ptr %23, align 4, !tbaa !34
  %47 = sext i32 %46 to i64
  %48 = getelementptr inbounds ptr, ptr %45, i64 %47
  %49 = load ptr, ptr %48, align 8, !tbaa !28
  %50 = load i32, ptr %24, align 4, !tbaa !34
  %51 = sext i32 %50 to i64
  %52 = getelementptr inbounds i32, ptr %49, i64 %51
  %53 = load i32, ptr %52, align 4, !tbaa !34
  %54 = load ptr, ptr %15, align 8, !tbaa !25
  %55 = load i32, ptr %23, align 4, !tbaa !34
  %56 = sext i32 %55 to i64
  %57 = getelementptr inbounds ptr, ptr %54, i64 %56
  %58 = load ptr, ptr %57, align 8, !tbaa !28
  %59 = load i32, ptr %24, align 4, !tbaa !34
  %60 = sext i32 %59 to i64
  %61 = getelementptr inbounds i32, ptr %58, i64 %60
  %62 = load i32, ptr %61, align 4, !tbaa !34
  %63 = add nsw i32 %53, %62
  %64 = load ptr, ptr %22, align 8, !tbaa !28
  %65 = load i32, ptr %23, align 4, !tbaa !34
  %66 = sext i32 %65 to i64
  %67 = getelementptr inbounds i32, ptr %64, i64 %66
  store i32 %63, ptr %67, align 4, !tbaa !34
  br label %68

68:                                               ; preds = %44
  %69 = load i32, ptr %23, align 4, !tbaa !34
  %70 = add nsw i32 %69, 1
  store i32 %70, ptr %23, align 4, !tbaa !34
  br label %41, !llvm.loop !69

71:                                               ; preds = %41
  store i32 32, ptr %23, align 4, !tbaa !34
  br label %72

72:                                               ; preds = %89, %71
  %73 = load i32, ptr %23, align 4, !tbaa !34
  %74 = icmp slt i32 %73, 64
  br i1 %74, label %75, label %92

75:                                               ; preds = %72
  %76 = load ptr, ptr %15, align 8, !tbaa !25
  %77 = load i32, ptr %23, align 4, !tbaa !34
  %78 = sext i32 %77 to i64
  %79 = getelementptr inbounds ptr, ptr %76, i64 %78
  %80 = load ptr, ptr %79, align 8, !tbaa !28
  %81 = load i32, ptr %24, align 4, !tbaa !34
  %82 = sext i32 %81 to i64
  %83 = getelementptr inbounds i32, ptr %80, i64 %82
  %84 = load i32, ptr %83, align 4, !tbaa !34
  %85 = load ptr, ptr %22, align 8, !tbaa !28
  %86 = load i32, ptr %23, align 4, !tbaa !34
  %87 = sext i32 %86 to i64
  %88 = getelementptr inbounds i32, ptr %85, i64 %87
  store i32 %84, ptr %88, align 4, !tbaa !34
  br label %89

89:                                               ; preds = %75
  %90 = load i32, ptr %23, align 4, !tbaa !34
  %91 = add nsw i32 %90, 1
  store i32 %91, ptr %23, align 4, !tbaa !34
  br label %72, !llvm.loop !70

92:                                               ; preds = %72
  br label %115

93:                                               ; preds = %37
  store i32 0, ptr %23, align 4, !tbaa !34
  br label %94

94:                                               ; preds = %111, %93
  %95 = load i32, ptr %23, align 4, !tbaa !34
  %96 = icmp slt i32 %95, 32
  br i1 %96, label %97, label %114

97:                                               ; preds = %94
  %98 = load ptr, ptr %14, align 8, !tbaa !25
  %99 = load i32, ptr %23, align 4, !tbaa !34
  %100 = sext i32 %99 to i64
  %101 = getelementptr inbounds ptr, ptr %98, i64 %100
  %102 = load ptr, ptr %101, align 8, !tbaa !28
  %103 = load i32, ptr %24, align 4, !tbaa !34
  %104 = sext i32 %103 to i64
  %105 = getelementptr inbounds i32, ptr %102, i64 %104
  %106 = load i32, ptr %105, align 4, !tbaa !34
  %107 = load ptr, ptr %22, align 8, !tbaa !28
  %108 = load i32, ptr %23, align 4, !tbaa !34
  %109 = sext i32 %108 to i64
  %110 = getelementptr inbounds i32, ptr %107, i64 %109
  store i32 %106, ptr %110, align 4, !tbaa !34
  br label %111

111:                                              ; preds = %97
  %112 = load i32, ptr %23, align 4, !tbaa !34
  %113 = add nsw i32 %112, 1
  store i32 %113, ptr %23, align 4, !tbaa !34
  br label %94, !llvm.loop !71

114:                                              ; preds = %94
  br label %115

115:                                              ; preds = %114, %92
  %116 = load ptr, ptr %11, align 8, !tbaa !47
  %117 = getelementptr inbounds nuw %struct.SynthFilterContext, ptr %116, i32 0, i32 3
  %118 = load ptr, ptr %117, align 8, !tbaa !72
  %119 = load ptr, ptr %12, align 8, !tbaa !64
  %120 = load ptr, ptr %16, align 8, !tbaa !28
  %121 = load ptr, ptr %17, align 8, !tbaa !28
  %122 = load ptr, ptr %18, align 8, !tbaa !28
  %123 = load ptr, ptr %19, align 8, !tbaa !28
  %124 = load ptr, ptr %13, align 8, !tbaa !28
  %125 = load ptr, ptr %22, align 8, !tbaa !28
  call void %118(ptr noundef %119, ptr noundef %120, ptr noundef %121, ptr noundef %122, ptr noundef %123, ptr noundef %124, ptr noundef %125)
  %126 = load ptr, ptr %13, align 8, !tbaa !28
  %127 = getelementptr inbounds i32, ptr %126, i64 64
  store ptr %127, ptr %13, align 8, !tbaa !28
  br label %128

128:                                              ; preds = %115
  %129 = load i32, ptr %24, align 4, !tbaa !34
  %130 = add nsw i32 %129, 1
  store i32 %130, ptr %24, align 4, !tbaa !34
  br label %32, !llvm.loop !73

131:                                              ; preds = %32
  call void @llvm.lifetime.end.p0(i64 4, ptr %24) #7
  call void @llvm.lifetime.end.p0(i64 4, ptr %23) #7
  call void @llvm.lifetime.end.p0(i64 8, ptr %22) #7
  call void @llvm.lifetime.end.p0(i64 256, ptr %21) #7
  ret void
}