; Function Attrs: nounwind uwtable
define internal void @sub_qmf64_fixed_c(ptr noundef readonly captures(none) %0, ptr noundef %1, ptr noundef %2, ptr noundef readonly captures(none) %3, ptr noundef readonly captures(address_is_null) %4, ptr noundef %5, ptr noundef %6, ptr noundef %7, ptr noundef %8, i64 noundef %9) #4 {
  %11 = alloca [64 x i32], align 16
  call void @llvm.lifetime.start.p0(i64 256, ptr nonnull %11) #10
  %.not = icmp eq ptr %4, null
  br i1 %.not, label %12, label %.thread

12:                                               ; preds = %10
  %13 = getelementptr inbounds nuw i8, ptr %11, i64 128
  call void @llvm.memset.p0.i64(ptr noundef nonnull align 16 dereferenceable(128) %13, i8 0, i64 128, i1 false)
  %14 = icmp sgt i64 %9, 0
  br i1 %14, label %.preheader.us.preheader, label %._crit_edge

.thread:                                          ; preds = %10
  %15 = icmp sgt i64 %9, 0
  br i1 %15, label %.preheader44.preheader, label %._crit_edge

.preheader44.preheader:                           ; preds = %.thread
  %16 = getelementptr inbounds nuw i8, ptr %0, i64 24
  br label %.preheader44

.preheader.us.preheader:                          ; preds = %12
  %17 = getelementptr inbounds nuw i8, ptr %0, i64 24
  br label %.preheader.us

.preheader.us:                                    ; preds = %.preheader.us.preheader, %.loopexit.us
  %indvars.iv64 = phi i64 [ 0, %.preheader.us.preheader ], [ %indvars.iv.next65, %.loopexit.us ]
  %.03948.us = phi ptr [ %2, %.preheader.us.preheader ], [ %25, %.loopexit.us ]
  br label %18

18:                                               ; preds = %.preheader.us, %18
  %indvars.iv60 = phi i64 [ 0, %.preheader.us ], [ %indvars.iv.next61, %18 ]
  %19 = getelementptr inbounds nuw ptr, ptr %3, i64 %indvars.iv60
  %20 = load ptr, ptr %19, align 8, !tbaa !25
  %21 = getelementptr inbounds nuw i32, ptr %20, i64 %indvars.iv64
  %22 = load i32, ptr %21, align 4, !tbaa !23
  %23 = getelementptr inbounds nuw i32, ptr %11, i64 %indvars.iv60
  store i32 %22, ptr %23, align 4, !tbaa !23
  %indvars.iv.next61 = add nuw nsw i64 %indvars.iv60, 1
  %exitcond63.not = icmp eq i64 %indvars.iv.next61, 32
  br i1 %exitcond63.not, label %.loopexit.us, label %18, !llvm.loop !55

.loopexit.us:                                     ; preds = %18
  %24 = load ptr, ptr %17, align 8, !tbaa !56
  call void %24(ptr noundef %1, ptr noundef %5, ptr noundef %6, ptr noundef %7, ptr noundef %8, ptr noundef %.03948.us, ptr noundef nonnull %11) #10
  %25 = getelementptr inbounds nuw i8, ptr %.03948.us, i64 256
  %indvars.iv.next65 = add nuw nsw i64 %indvars.iv64, 1
  %exitcond67.not = icmp eq i64 %indvars.iv.next65, %9
  br i1 %exitcond67.not, label %._crit_edge, label %.preheader.us, !llvm.loop !57

.preheader44:                                     ; preds = %.preheader44.preheader, %.loopexit43
  %indvars.iv56 = phi i64 [ 0, %.preheader44.preheader ], [ %indvars.iv.next57, %.loopexit43 ]
  %.03948 = phi ptr [ %2, %.preheader44.preheader ], [ %43, %.loopexit43 ]
  br label %26

26:                                               ; preds = %.preheader44, %26
  %indvars.iv = phi i64 [ 0, %.preheader44 ], [ %indvars.iv.next, %26 ]
  %27 = getelementptr inbounds nuw ptr, ptr %3, i64 %indvars.iv
  %28 = load ptr, ptr %27, align 8, !tbaa !25
  %29 = getelementptr inbounds nuw i32, ptr %28, i64 %indvars.iv56
  %30 = load i32, ptr %29, align 4, !tbaa !23
  %31 = getelementptr inbounds nuw ptr, ptr %4, i64 %indvars.iv
  %32 = load ptr, ptr %31, align 8, !tbaa !25
  %33 = getelementptr inbounds nuw i32, ptr %32, i64 %indvars.iv56
  %34 = load i32, ptr %33, align 4, !tbaa !23
  %35 = add nsw i32 %34, %30
  %36 = getelementptr inbounds nuw i32, ptr %11, i64 %indvars.iv
  store i32 %35, ptr %36, align 4, !tbaa !23
  %indvars.iv.next = add nuw nsw i64 %indvars.iv, 1
  %exitcond.not = icmp eq i64 %indvars.iv.next, 32
  br i1 %exitcond.not, label %.preheader42, label %26, !llvm.loop !58

.preheader42:                                     ; preds = %26, %.preheader42
  %indvars.iv52 = phi i64 [ %indvars.iv.next53, %.preheader42 ], [ 32, %26 ]
  %37 = getelementptr inbounds nuw ptr, ptr %4, i64 %indvars.iv52
  %38 = load ptr, ptr %37, align 8, !tbaa !25
  %39 = getelementptr inbounds nuw i32, ptr %38, i64 %indvars.iv56
  %40 = load i32, ptr %39, align 4, !tbaa !23
  %41 = getelementptr inbounds nuw i32, ptr %11, i64 %indvars.iv52
  store i32 %40, ptr %41, align 4, !tbaa !23
  %indvars.iv.next53 = add nuw nsw i64 %indvars.iv52, 1
  %exitcond55.not = icmp eq i64 %indvars.iv.next53, 64
  br i1 %exitcond55.not, label %.loopexit43, label %.preheader42, !llvm.loop !59

.loopexit43:                                      ; preds = %.preheader42
  %42 = load ptr, ptr %16, align 8, !tbaa !56
  call void %42(ptr noundef %1, ptr noundef %5, ptr noundef %6, ptr noundef %7, ptr noundef %8, ptr noundef %.03948, ptr noundef nonnull %11) #10
  %43 = getelementptr inbounds nuw i8, ptr %.03948, i64 256
  %indvars.iv.next57 = add nuw nsw i64 %indvars.iv56, 1
  %exitcond59.not = icmp eq i64 %indvars.iv.next57, %9
  br i1 %exitcond59.not, label %._crit_edge, label %.preheader44, !llvm.loop !57

._crit_edge:                                      ; preds = %.loopexit43, %.loopexit.us, %.thread, %12
  call void @llvm.lifetime.end.p0(i64 256, ptr nonnull %11) #10
  ret void
}